target datalayout = "e-m:e-p270:32:32-p271:32:32-p272:64:64-i64:64-i128:128-f80:128-n8:16:32:64-S128"
target triple = "x86_64-pc-linux-gnu"

%struct.MinRegMan_t_ = type { i32, i32, i32, i32, i32, i32, i32, i32, i32, i32, i32, ptr, i32, i32, i32, i32, i32, i32, i32, i32, i32, ptr, ptr, ptr, ptr, ptr, ptr, ptr, ptr, ptr, i32 }
%struct.Flow_Data_t_ = type { i16, %union.anon, i32 }
%union.anon = type { ptr }

@pManMR = global ptr null, align 8

; Function Attrs: nounwind uwtable
define void @Abc_FlowRetime_ClearFlows(i32 noundef %0) #0 {
  %2 = alloca i32, align 4
  %3 = alloca i32, align 4
  store i32 %0, ptr %2, align 4, !tbaa !8
  call void @llvm.lifetime.start.p0(i64 4, ptr %3) #9
  %4 = load i32, ptr %2, align 4, !tbaa !8
  %5 = icmp ne i32 %4, 0
  br i1 %5, label %6, label %15

6:                                                ; preds = %1
  %7 = load ptr, ptr @pManMR, align 8, !tbaa !10
  %8 = getelementptr inbounds nuw %struct.MinRegMan_t_, ptr %7, i32 0, i32 23
  %9 = load ptr, ptr %8, align 8, !tbaa !56
  %10 = load ptr, ptr @pManMR, align 8, !tbaa !10
  %11 = getelementptr inbounds nuw %struct.MinRegMan_t_, ptr %10, i32 0, i32 4
  %12 = load i32, ptr %11, align 8, !tbaa !52
  %13 = sext i32 %12 to i64
  %14 = mul i64 24, %13
  call void @llvm.memset.p0.i64(ptr align 8 %9, i8 0, i64 %14, i1 false)
  br label %64

15:                                               ; preds = %1
  store i32 0, ptr %3, align 4, !tbaa !8
  br label %16

16:                                               ; preds = %60, %15
  %17 = load i32, ptr %3, align 4, !tbaa !8
  %18 = load ptr, ptr @pManMR, align 8, !tbaa !10
  %19 = getelementptr inbounds nuw %struct.MinRegMan_t_, ptr %18, i32 0, i32 4
  %20 = load i32, ptr %19, align 8, !tbaa !52
  %21 = icmp slt i32 %17, %20
  br i1 %21, label %22, label %63

22:                                               ; preds = %16
  %23 = load ptr, ptr @pManMR, align 8, !tbaa !10
  %24 = getelementptr inbounds nuw %struct.MinRegMan_t_, ptr %23, i32 0, i32 23
  %25 = load ptr, ptr %24, align 8, !tbaa !56
  %26 = load i32, ptr %3, align 4, !tbaa !8
  %27 = sext i32 %26 to i64
  %28 = getelementptr inbounds %struct.Flow_Data_t_, ptr %25, i64 %27
  %29 = load i16, ptr %28, align 8
  %30 = zext i16 %29 to i32
  %31 = and i32 %30, -8
  %32 = trunc i32 %31 to i16
  store i16 %32, ptr %28, align 8
  %33 = load ptr, ptr @pManMR, align 8, !tbaa !10
  %34 = getelementptr inbounds nuw %struct.MinRegMan_t_, ptr %33, i32 0, i32 23
  %35 = load ptr, ptr %34, align 8, !tbaa !56
  %36 = load i32, ptr %3, align 4, !tbaa !8
  %37 = sext i32 %36 to i64
  %38 = getelementptr inbounds %struct.Flow_Data_t_, ptr %35, i64 %37
  %39 = getelementptr inbounds nuw %struct.Flow_Data_t_, ptr %38, i32 0, i32 2
  %40 = load i32, ptr %39, align 8
  %41 = and i32 %40, -65536
  %42 = or i32 %41, 0
  store i32 %42, ptr %39, align 8
  %43 = load ptr, ptr @pManMR, align 8, !tbaa !10
  %44 = getelementptr inbounds nuw %struct.MinRegMan_t_, ptr %43, i32 0, i32 23
  %45 = load ptr, ptr %44, align 8, !tbaa !56
  %46 = load i32, ptr %3, align 4, !tbaa !8
  %47 = sext i32 %46 to i64
  %48 = getelementptr inbounds %struct.Flow_Data_t_, ptr %45, i64 %47
  %49 = getelementptr inbounds nuw %struct.Flow_Data_t_, ptr %48, i32 0, i32 2
  %50 = load i32, ptr %49, align 8
  %51 = and i32 %50, 65535
  %52 = or i32 %51, 0
  store i32 %52, ptr %49, align 8
  %53 = load ptr, ptr @pManMR, align 8, !tbaa !10
  %54 = getelementptr inbounds nuw %struct.MinRegMan_t_, ptr %53, i32 0, i32 23
  %55 = load ptr, ptr %54, align 8, !tbaa !56
  %56 = load i32, ptr %3, align 4, !tbaa !8
  %57 = sext i32 %56 to i64
  %58 = getelementptr inbounds %struct.Flow_Data_t_, ptr %55, i64 %57
  %59 = getelementptr inbounds nuw %struct.Flow_Data_t_, ptr %58, i32 0, i32 1
  store ptr null, ptr %59, align 8, !tbaa !79
  br label %60

60:                                               ; preds = %22
  %61 = load i32, ptr %3, align 4, !tbaa !8
  %62 = add nsw i32 %61, 1
  store i32 %62, ptr %3, align 4, !tbaa !8
  br label %16, !llvm.loop !80

63:                                               ; preds = %16
  br label %64

64:                                               ; preds = %63, %6
  call void @llvm.lifetime.end.p0(i64 4, ptr %3) #9
  ret void
}