; Function Attrs: nofree norecurse nosync nounwind memory(readwrite, inaccessiblemem: none) uwtable
define void @Abc_FlowRetime_ClearFlows(i32 noundef %0) local_unnamed_addr #6 {
  %.not = icmp eq i32 %0, 0
  %2 = load ptr, ptr @pManMR, align 8, !tbaa !3
  br i1 %.not, label %.preheader, label %6

.preheader:                                       ; preds = %1
  %3 = getelementptr inbounds nuw i8, ptr %2, i64 16
  %4 = load i32, ptr %3, align 8, !tbaa !65
  %5 = icmp sgt i32 %4, 0
  br i1 %5, label %.lr.ph, label %.loopexit

6:                                                ; preds = %1
  %7 = getelementptr inbounds nuw i8, ptr %2, i64 112
  %8 = load ptr, ptr %7, align 8, !tbaa !71
  %9 = getelementptr inbounds nuw i8, ptr %2, i64 16
  %10 = load i32, ptr %9, align 8, !tbaa !65
  %11 = sext i32 %10 to i64
  %12 = mul nsw i64 %11, 24
  tail call void @llvm.memset.p0.i64(ptr align 8 %8, i8 0, i64 %12, i1 false)
  br label %.loopexit

.lr.ph:                                           ; preds = %.preheader, %.lr.ph
  %indvars.iv = phi i64 [ %indvars.iv.next, %.lr.ph ], [ 0, %.preheader ]
  %13 = phi ptr [ %35, %.lr.ph ], [ %2, %.preheader ]
  %14 = getelementptr inbounds nuw i8, ptr %13, i64 112
  %15 = load ptr, ptr %14, align 8, !tbaa !71
  %16 = getelementptr inbounds nuw %struct.Flow_Data_t_, ptr %15, i64 %indvars.iv
  %17 = load i16, ptr %16, align 8
  %18 = and i16 %17, -8
  store i16 %18, ptr %16, align 8
  %19 = load ptr, ptr @pManMR, align 8, !tbaa !3
  %20 = getelementptr inbounds nuw i8, ptr %19, i64 112
  %21 = load ptr, ptr %20, align 8, !tbaa !71
  %22 = getelementptr inbounds nuw %struct.Flow_Data_t_, ptr %21, i64 %indvars.iv, i32 2
  %23 = load i32, ptr %22, align 8
  %24 = and i32 %23, -65536
  store i32 %24, ptr %22, align 8
  %25 = load ptr, ptr @pManMR, align 8, !tbaa !3
  %26 = getelementptr inbounds nuw i8, ptr %25, i64 112
  %27 = load ptr, ptr %26, align 8, !tbaa !71
  %28 = getelementptr inbounds nuw %struct.Flow_Data_t_, ptr %27, i64 %indvars.iv, i32 2
  %29 = load i32, ptr %28, align 8
  %30 = and i32 %29, 65535
  store i32 %30, ptr %28, align 8
  %31 = load ptr, ptr @pManMR, align 8, !tbaa !3
  %32 = getelementptr inbounds nuw i8, ptr %31, i64 112
  %33 = load ptr, ptr %32, align 8, !tbaa !71
  %34 = getelementptr inbounds nuw %struct.Flow_Data_t_, ptr %33, i64 %indvars.iv, i32 1
  store ptr null, ptr %34, align 8, !tbaa !59
  %indvars.iv.next = add nuw nsw i64 %indvars.iv, 1
  %35 = load ptr, ptr @pManMR, align 8, !tbaa !3
  %36 = getelementptr inbounds nuw i8, ptr %35, i64 16
  %37 = load i32, ptr %36, align 8, !tbaa !65
  %38 = sext i32 %37 to i64
  %39 = icmp slt i64 %indvars.iv.next, %38
  br i1 %39, label %.lr.ph, label %.loopexit, !llvm.loop !75

.loopexit:                                        ; preds = %.lr.ph, %.preheader, %6
  ret void
}